; ModuleID = 'source-C-CXX/61/2091.c'
source_filename = "source-C-CXX/61/2091.c"
target datalayout = "e-m:e-p270:32:32-p271:32:32-p272:64:64-i64:64-f80:128-n8:16:32:64-S128"
target triple = "x86_64-pc-linux-gnu"

@.str = private unnamed_addr constant [3 x i8] c"%s\00", align 1

; Function Attrs: nounwind sspstrong uwtable
define dso_local i32 @main() local_unnamed_addr #0 {
  %1 = alloca [1000 x i8], align 16
  %2 = alloca [1000 x i8], align 16
  %3 = getelementptr inbounds [1000 x i8], [1000 x i8]* %1, i64 0, i64 0
  call void @llvm.lifetime.start.p0i8(i64 1000, i8* nonnull %3) #4
  %4 = getelementptr inbounds [1000 x i8], [1000 x i8]* %2, i64 0, i64 0
  call void @llvm.lifetime.start.p0i8(i64 1000, i8* nonnull %4) #4
  %5 = call i32 (i8*, ...) bitcast (i32 (...)* @gets to i32 (i8*, ...)*)(i8* nonnull %3) #4
  %6 = load i8, i8* %3, align 16, !tbaa !5
  %7 = icmp eq i8 %6, 0
  br i1 %7, label %31, label %8

8:                                                ; preds = %0, %24
  %9 = phi i64 [ %27, %24 ], [ 0, %0 ]
  %10 = phi i8 [ %29, %24 ], [ %6, %0 ]
  %11 = phi i32 [ %26, %24 ], [ 0, %0 ]
  %12 = phi i32 [ %25, %24 ], [ 0, %0 ]
  %13 = icmp eq i8 %10, 32
  %14 = icmp eq i32 %11, 0
  %15 = select i1 %13, i1 %14, i1 false
  %16 = xor i1 %13, true
  %17 = or i1 %15, %16
  br i1 %17, label %18, label %24

18:                                               ; preds = %8
  %19 = zext i1 %15 to i32
  %20 = select i1 %15, i8 32, i8 %10
  %21 = sext i32 %12 to i64
  %22 = getelementptr inbounds [1000 x i8], [1000 x i8]* %2, i64 0, i64 %21
  store i8 %20, i8* %22, align 1, !tbaa !5
  %23 = add nsw i32 %12, 1
  br label %24

24:                                               ; preds = %8, %18
  %25 = phi i32 [ %23, %18 ], [ %12, %8 ]
  %26 = phi i32 [ %19, %18 ], [ %11, %8 ]
  %27 = add nuw i64 %9, 1
  %28 = getelementptr inbounds [1000 x i8], [1000 x i8]* %1, i64 0, i64 %27
  %29 = load i8, i8* %28, align 1, !tbaa !5
  %30 = icmp eq i8 %29, 0
  br i1 %30, label %31, label %8, !llvm.loop !8

31:                                               ; preds = %24, %0
  %32 = phi i32 [ 0, %0 ], [ %25, %24 ]
  %33 = sext i32 %32 to i64
  %34 = getelementptr inbounds [1000 x i8], [1000 x i8]* %2, i64 0, i64 %33
  store i8 0, i8* %34, align 1, !tbaa !5
  %35 = call i32 (i8*, ...) @printf(i8* nonnull dereferenceable(1) getelementptr inbounds ([3 x i8], [3 x i8]* @.str, i64 0, i64 0), i8* nonnull %4)
  call void @llvm.lifetime.end.p0i8(i64 1000, i8* nonnull %4) #4
  call void @llvm.lifetime.end.p0i8(i64 1000, i8* nonnull %3) #4
  ret i32 0
}

; Function Attrs: argmemonly mustprogress nofree nosync nounwind willreturn
declare void @llvm.lifetime.start.p0i8(i64 immarg, i8* nocapture) #1

declare i32 @gets(...) local_unnamed_addr #2

; Function Attrs: nofree nounwind
declare noundef i32 @printf(i8* nocapture noundef readonly, ...) local_unnamed_addr #3

; Function Attrs: argmemonly mustprogress nofree nosync nounwind willreturn
declare void @llvm.lifetime.end.p0i8(i64 immarg, i8* nocapture) #1


!llvm.module.flags = !{!0, !1, !2, !3}
!llvm.ident = !{!4}

!0 = !{i32 1, !"wchar_size", i32 4}
!1 = !{i32 7, !"PIC Level", i32 2}
!2 = !{i32 7, !"PIE Level", i32 2}
!3 = !{i32 7, !"uwtable", i32 1}
!4 = !{!"clang version 13.0.0"}
!5 = !{!6, !6, i64 0}
!6 = !{!"omnipotent char", !7, i64 0}
!7 = !{!"Simple C/C++ TBAA"}
!8 = distinct !{!8, !9}
!9 = !{!"llvm.loop.mustprogress"}
